target datalayout = "e-m:e-p270:32:32-p271:32:32-p272:64:64-i64:64-i128:128-f80:128-n8:16:32:64-S128"
target triple = "x86_64-pc-linux-gnu"

%struct.tag_ALSA_AudioDeviceDescription = type { i32, i32, ptr, ptr, ptr, ptr, ptr, ptr }

@.str.2 = private unnamed_addr constant [2 x i8] c"]\00", align 1
@.str.3 = private unnamed_addr constant [35 x i8] c"ALSA (http://www.alsa-project.org)\00", align 1
@.str.4 = private unnamed_addr constant [3 x i8] c", \00", align 1

; Function Attrs: nounwind uwtable
define hidden i32 @deviceInfoIterator(i32 noundef %0, ptr noundef %1, ptr noundef %2, ptr noundef %3) #0 {
  %5 = alloca i32, align 4
  %6 = alloca i32, align 4
  %7 = alloca ptr, align 8
  %8 = alloca ptr, align 8
  %9 = alloca ptr, align 8
  %10 = alloca [300 x i8], align 16
  %11 = alloca ptr, align 8
  %12 = alloca i32, align 4
  store i32 %0, ptr %6, align 4
  store ptr %1, ptr %7, align 8
  store ptr %2, ptr %8, align 8
  store ptr %3, ptr %9, align 8
  %13 = load ptr, ptr %9, align 8
  store ptr %13, ptr %11, align 8
  store i32 1, ptr %12, align 4
  call void (...) @initAlsaSupport()
  %14 = load ptr, ptr %11, align 8
  %15 = getelementptr inbounds %struct.tag_ALSA_AudioDeviceDescription, ptr %14, i32 0, i32 0
  %16 = load i32, ptr %15, align 8
  %17 = icmp eq i32 %16, 0
  br i1 %17, label %18, label %168

18:                                               ; preds = %4
  %19 = call i32 @needEnumerateSubdevices(i32 noundef 0)
  %20 = icmp ne i32 %19, 0
  br i1 %20, label %21, label %22

21:                                               ; preds = %18
  br label %25

22:                                               ; preds = %18
  %23 = load ptr, ptr %7, align 8
  %24 = call i32 @snd_pcm_info_get_subdevices_count(ptr noundef %23)
  br label %25

25:                                               ; preds = %22, %21
  %26 = phi i32 [ 1, %21 ], [ %24, %22 ]
  %27 = load ptr, ptr %11, align 8
  %28 = getelementptr inbounds %struct.tag_ALSA_AudioDeviceDescription, ptr %27, i32 0, i32 3
  %29 = load ptr, ptr %28, align 8
  store i32 %26, ptr %29, align 4
  %30 = load i32, ptr %6, align 4
  %31 = load ptr, ptr %11, align 8
  %32 = getelementptr inbounds %struct.tag_ALSA_AudioDeviceDescription, ptr %31, i32 0, i32 2
  %33 = load ptr, ptr %32, align 8
  store i32 %30, ptr %33, align 4
  %34 = getelementptr inbounds [300 x i8], ptr %10, i64 0, i64 0
  store i8 32, ptr %34, align 16
  %35 = getelementptr inbounds [300 x i8], ptr %10, i64 0, i64 1
  store i8 91, ptr %35, align 1
  %36 = getelementptr inbounds [300 x i8], ptr %10, i64 0, i64 2
  %37 = load i32, ptr %6, align 4
  %38 = load i32, ptr %12, align 4
  call void @getDeviceStringFromDeviceID(ptr noundef %36, i64 noundef 298, i32 noundef %37, i32 noundef %38, i32 noundef 0)
  %39 = getelementptr inbounds [300 x i8], ptr %10, i64 0, i64 0
  %40 = getelementptr inbounds [300 x i8], ptr %10, i64 0, i64 0
  %41 = call i64 @strlen(ptr noundef %40) #5
  %42 = sub i64 300, %41
  %43 = sub i64 %42, 1
  %44 = call ptr @strncat(ptr noundef %39, ptr noundef @.str.2, i64 noundef %43) #4
  %45 = load ptr, ptr %11, align 8
  %46 = getelementptr inbounds %struct.tag_ALSA_AudioDeviceDescription, ptr %45, i32 0, i32 4
  %47 = load ptr, ptr %46, align 8
  %48 = load ptr, ptr %8, align 8
  %49 = icmp ne ptr %48, null
  br i1 %49, label %50, label %53

50:                                               ; preds = %25
  %51 = load ptr, ptr %8, align 8
  %52 = call ptr @snd_ctl_card_info_get_id(ptr noundef %51)
  br label %56

53:                                               ; preds = %25
  %54 = load ptr, ptr %7, align 8
  %55 = call ptr @snd_pcm_info_get_id(ptr noundef %54)
  br label %56

56:                                               ; preds = %53, %50
  %57 = phi ptr [ %52, %50 ], [ %55, %53 ]
  %58 = load ptr, ptr %11, align 8
  %59 = getelementptr inbounds %struct.tag_ALSA_AudioDeviceDescription, ptr %58, i32 0, i32 1
  %60 = load i32, ptr %59, align 4
  %61 = sext i32 %60 to i64
  %62 = getelementptr inbounds [300 x i8], ptr %10, i64 0, i64 0
  %63 = call i64 @strlen(ptr noundef %62) #5
  %64 = sub i64 %61, %63
  %65 = call ptr @strncpy(ptr noundef %47, ptr noundef %57, i64 noundef %64) #4
  %66 = load ptr, ptr %11, align 8
  %67 = getelementptr inbounds %struct.tag_ALSA_AudioDeviceDescription, ptr %66, i32 0, i32 4
  %68 = load ptr, ptr %67, align 8
  %69 = getelementptr inbounds [300 x i8], ptr %10, i64 0, i64 0
  %70 = load ptr, ptr %11, align 8
  %71 = getelementptr inbounds %struct.tag_ALSA_AudioDeviceDescription, ptr %70, i32 0, i32 1
  %72 = load i32, ptr %71, align 4
  %73 = sext i32 %72 to i64
  %74 = load ptr, ptr %11, align 8
  %75 = getelementptr inbounds %struct.tag_ALSA_AudioDeviceDescription, ptr %74, i32 0, i32 4
  %76 = load ptr, ptr %75, align 8
  %77 = call i64 @strlen(ptr noundef %76) #5
  %78 = sub i64 %73, %77
  %79 = call ptr @strncat(ptr noundef %68, ptr noundef %69, i64 noundef %78) #4
  %80 = load ptr, ptr %11, align 8
  %81 = getelementptr inbounds %struct.tag_ALSA_AudioDeviceDescription, ptr %80, i32 0, i32 5
  %82 = load ptr, ptr %81, align 8
  %83 = load ptr, ptr %11, align 8
  %84 = getelementptr inbounds %struct.tag_ALSA_AudioDeviceDescription, ptr %83, i32 0, i32 1
  %85 = load i32, ptr %84, align 4
  %86 = sext i32 %85 to i64
  %87 = call ptr @strncpy(ptr noundef %82, ptr noundef @.str.3, i64 noundef %86) #4
  %88 = load ptr, ptr %11, align 8
  %89 = getelementptr inbounds %struct.tag_ALSA_AudioDeviceDescription, ptr %88, i32 0, i32 6
  %90 = load ptr, ptr %89, align 8
  %91 = load ptr, ptr %8, align 8
  %92 = icmp ne ptr %91, null
  br i1 %92, label %93, label %96

93:                                               ; preds = %56
  %94 = load ptr, ptr %8, align 8
  %95 = call ptr @snd_ctl_card_info_get_name(ptr noundef %94)
  br label %99

96:                                               ; preds = %56
  %97 = load ptr, ptr %7, align 8
  %98 = call ptr @snd_pcm_info_get_name(ptr noundef %97)
  br label %99

99:                                               ; preds = %96, %93
  %100 = phi ptr [ %95, %93 ], [ %98, %96 ]
  %101 = load ptr, ptr %11, align 8
  %102 = getelementptr inbounds %struct.tag_ALSA_AudioDeviceDescription, ptr %101, i32 0, i32 1
  %103 = load i32, ptr %102, align 4
  %104 = sext i32 %103 to i64
  %105 = call ptr @strncpy(ptr noundef %90, ptr noundef %100, i64 noundef %104) #4
  %106 = load ptr, ptr %11, align 8
  %107 = getelementptr inbounds %struct.tag_ALSA_AudioDeviceDescription, ptr %106, i32 0, i32 6
  %108 = load ptr, ptr %107, align 8
  %109 = load ptr, ptr %11, align 8
  %110 = getelementptr inbounds %struct.tag_ALSA_AudioDeviceDescription, ptr %109, i32 0, i32 1
  %111 = load i32, ptr %110, align 4
  %112 = sext i32 %111 to i64
  %113 = load ptr, ptr %11, align 8
  %114 = getelementptr inbounds %struct.tag_ALSA_AudioDeviceDescription, ptr %113, i32 0, i32 6
  %115 = load ptr, ptr %114, align 8
  %116 = call i64 @strlen(ptr noundef %115) #5
  %117 = sub i64 %112, %116
  %118 = call ptr @strncat(ptr noundef %108, ptr noundef @.str.4, i64 noundef %117) #4
  %119 = load ptr, ptr %11, align 8
  %120 = getelementptr inbounds %struct.tag_ALSA_AudioDeviceDescription, ptr %119, i32 0, i32 6
  %121 = load ptr, ptr %120, align 8
  %122 = load ptr, ptr %7, align 8
  %123 = call ptr @snd_pcm_info_get_id(ptr noundef %122)
  %124 = load ptr, ptr %11, align 8
  %125 = getelementptr inbounds %struct.tag_ALSA_AudioDeviceDescription, ptr %124, i32 0, i32 1
  %126 = load i32, ptr %125, align 4
  %127 = sext i32 %126 to i64
  %128 = load ptr, ptr %11, align 8
  %129 = getelementptr inbounds %struct.tag_ALSA_AudioDeviceDescription, ptr %128, i32 0, i32 6
  %130 = load ptr, ptr %129, align 8
  %131 = call i64 @strlen(ptr noundef %130) #5
  %132 = sub i64 %127, %131
  %133 = call ptr @strncat(ptr noundef %121, ptr noundef %123, i64 noundef %132) #4
  %134 = load ptr, ptr %11, align 8
  %135 = getelementptr inbounds %struct.tag_ALSA_AudioDeviceDescription, ptr %134, i32 0, i32 6
  %136 = load ptr, ptr %135, align 8
  %137 = load ptr, ptr %11, align 8
  %138 = getelementptr inbounds %struct.tag_ALSA_AudioDeviceDescription, ptr %137, i32 0, i32 1
  %139 = load i32, ptr %138, align 4
  %140 = sext i32 %139 to i64
  %141 = load ptr, ptr %11, align 8
  %142 = getelementptr inbounds %struct.tag_ALSA_AudioDeviceDescription, ptr %141, i32 0, i32 6
  %143 = load ptr, ptr %142, align 8
  %144 = call i64 @strlen(ptr noundef %143) #5
  %145 = sub i64 %140, %144
  %146 = call ptr @strncat(ptr noundef %136, ptr noundef @.str.4, i64 noundef %145) #4
  %147 = load ptr, ptr %11, align 8
  %148 = getelementptr inbounds %struct.tag_ALSA_AudioDeviceDescription, ptr %147, i32 0, i32 6
  %149 = load ptr, ptr %148, align 8
  %150 = load ptr, ptr %7, align 8
  %151 = call ptr @snd_pcm_info_get_name(ptr noundef %150)
  %152 = load ptr, ptr %11, align 8
  %153 = getelementptr inbounds %struct.tag_ALSA_AudioDeviceDescription, ptr %152, i32 0, i32 1
  %154 = load i32, ptr %153, align 4
  %155 = sext i32 %154 to i64
  %156 = load ptr, ptr %11, align 8
  %157 = getelementptr inbounds %struct.tag_ALSA_AudioDeviceDescription, ptr %156, i32 0, i32 6
  %158 = load ptr, ptr %157, align 8
  %159 = call i64 @strlen(ptr noundef %158) #5
  %160 = sub i64 %155, %159
  %161 = call ptr @strncat(ptr noundef %149, ptr noundef %151, i64 noundef %160) #4
  %162 = load ptr, ptr %11, align 8
  %163 = getelementptr inbounds %struct.tag_ALSA_AudioDeviceDescription, ptr %162, i32 0, i32 7
  %164 = load ptr, ptr %163, align 8
  %165 = load ptr, ptr %11, align 8
  %166 = getelementptr inbounds %struct.tag_ALSA_AudioDeviceDescription, ptr %165, i32 0, i32 1
  %167 = load i32, ptr %166, align 4
  call void @getALSAVersion(ptr noundef %164, i32 noundef %167)
  store i32 0, ptr %5, align 4
  br label %173

168:                                              ; preds = %4
  %169 = load ptr, ptr %11, align 8
  %170 = getelementptr inbounds %struct.tag_ALSA_AudioDeviceDescription, ptr %169, i32 0, i32 0
  %171 = load i32, ptr %170, align 8
  %172 = add nsw i32 %171, -1
  store i32 %172, ptr %170, align 8
  store i32 1, ptr %5, align 4
  br label %173

173:                                              ; preds = %168, %99
  %174 = load i32, ptr %5, align 4
  ret i32 %174
}