; Function Attrs: nounwind uwtable
define hidden range(i32 0, 2) i32 @deviceInfoIterator(i32 noundef %0, ptr noundef %1, ptr noundef %2, ptr nocapture noundef %3) #0 {
  %5 = alloca [300 x i8], align 16
  tail call void (...) @initAlsaSupport() #5
  %6 = load i32, ptr %3, align 8
  %7 = icmp eq i32 %6, 0
  br i1 %7, label %8, label %90

8:                                                ; preds = %4
  %9 = tail call i32 @needEnumerateSubdevices(i32 noundef 0) #5
  %.not = icmp eq i32 %9, 0
  br i1 %.not, label %10, label %12

10:                                               ; preds = %8
  %11 = tail call i32 @snd_pcm_info_get_subdevices_count(ptr noundef %1) #5
  br label %12

12:                                               ; preds = %8, %10
  %13 = phi i32 [ %11, %10 ], [ 1, %8 ]
  %14 = getelementptr inbounds i8, ptr %3, i64 16
  %15 = load ptr, ptr %14, align 8
  store i32 %13, ptr %15, align 4
  %16 = getelementptr inbounds i8, ptr %3, i64 8
  %17 = load ptr, ptr %16, align 8
  store i32 %0, ptr %17, align 4
  store i8 32, ptr %5, align 16
  %18 = getelementptr inbounds i8, ptr %5, i64 1
  store i8 91, ptr %18, align 1
  %19 = getelementptr inbounds i8, ptr %5, i64 2
  call void @getDeviceStringFromDeviceID(ptr noundef nonnull %19, i64 noundef 298, i32 noundef %0, i32 noundef 1, i32 noundef 0) #5
  %20 = call i64 @strlen(ptr noundef nonnull dereferenceable(1) %5) #6
  %21 = sub i64 299, %20
  %22 = call ptr @strncat(ptr noundef nonnull dereferenceable(1) %5, ptr noundef nonnull @.str.2, i64 noundef %21) #5
  %23 = getelementptr inbounds i8, ptr %3, i64 24
  %24 = load ptr, ptr %23, align 8
  %.not42 = icmp eq ptr %2, null
  br i1 %.not42, label %27, label %25

25:                                               ; preds = %12
  %26 = call ptr @snd_ctl_card_info_get_id(ptr noundef nonnull %2) #5
  br label %29

27:                                               ; preds = %12
  %28 = call ptr @snd_pcm_info_get_id(ptr noundef %1) #5
  br label %29

29:                                               ; preds = %27, %25
  %30 = phi ptr [ %26, %25 ], [ %28, %27 ]
  %31 = getelementptr inbounds i8, ptr %3, i64 4
  %32 = load i32, ptr %31, align 4
  %33 = sext i32 %32 to i64
  %34 = call i64 @strlen(ptr noundef nonnull dereferenceable(1) %5) #6
  %35 = sub i64 %33, %34
  %36 = call ptr @strncpy(ptr noundef %24, ptr noundef %30, i64 noundef %35) #5
  %37 = load ptr, ptr %23, align 8
  %38 = load i32, ptr %31, align 4
  %39 = sext i32 %38 to i64
  %40 = call i64 @strlen(ptr noundef nonnull dereferenceable(1) %37) #6
  %41 = sub i64 %39, %40
  %42 = call ptr @strncat(ptr noundef nonnull dereferenceable(1) %37, ptr noundef nonnull %5, i64 noundef %41) #5
  %43 = getelementptr inbounds i8, ptr %3, i64 32
  %44 = load ptr, ptr %43, align 8
  %45 = load i32, ptr %31, align 4
  %46 = sext i32 %45 to i64
  %47 = call ptr @strncpy(ptr noundef %44, ptr noundef nonnull dereferenceable(35) @.str.3, i64 noundef %46) #5
  %48 = getelementptr inbounds i8, ptr %3, i64 40
  %49 = load ptr, ptr %48, align 8
  br i1 %.not42, label %52, label %50

50:                                               ; preds = %29
  %51 = call ptr @snd_ctl_card_info_get_name(ptr noundef nonnull %2) #5
  br label %54

52:                                               ; preds = %29
  %53 = call ptr @snd_pcm_info_get_name(ptr noundef %1) #5
  br label %54

54:                                               ; preds = %52, %50
  %55 = phi ptr [ %51, %50 ], [ %53, %52 ]
  %56 = load i32, ptr %31, align 4
  %57 = sext i32 %56 to i64
  %58 = call ptr @strncpy(ptr noundef %49, ptr noundef %55, i64 noundef %57) #5
  %59 = load ptr, ptr %48, align 8
  %60 = load i32, ptr %31, align 4
  %61 = sext i32 %60 to i64
  %62 = call i64 @strlen(ptr noundef nonnull dereferenceable(1) %59) #6
  %63 = sub i64 %61, %62
  %64 = call ptr @strncat(ptr noundef nonnull dereferenceable(1) %59, ptr noundef nonnull @.str.4, i64 noundef %63) #5
  %65 = load ptr, ptr %48, align 8
  %66 = call ptr @snd_pcm_info_get_id(ptr noundef %1) #5
  %67 = load i32, ptr %31, align 4
  %68 = sext i32 %67 to i64
  %69 = load ptr, ptr %48, align 8
  %70 = call i64 @strlen(ptr noundef nonnull dereferenceable(1) %69) #6
  %71 = sub i64 %68, %70
  %72 = call ptr @strncat(ptr noundef nonnull dereferenceable(1) %65, ptr noundef %66, i64 noundef %71) #5
  %73 = load ptr, ptr %48, align 8
  %74 = load i32, ptr %31, align 4
  %75 = sext i32 %74 to i64
  %76 = call i64 @strlen(ptr noundef nonnull dereferenceable(1) %73) #6
  %77 = sub i64 %75, %76
  %78 = call ptr @strncat(ptr noundef nonnull dereferenceable(1) %73, ptr noundef nonnull @.str.4, i64 noundef %77) #5
  %79 = load ptr, ptr %48, align 8
  %80 = call ptr @snd_pcm_info_get_name(ptr noundef %1) #5
  %81 = load i32, ptr %31, align 4
  %82 = sext i32 %81 to i64
  %83 = load ptr, ptr %48, align 8
  %84 = call i64 @strlen(ptr noundef nonnull dereferenceable(1) %83) #6
  %85 = sub i64 %82, %84
  %86 = call ptr @strncat(ptr noundef nonnull dereferenceable(1) %79, ptr noundef %80, i64 noundef %85) #5
  %87 = getelementptr inbounds i8, ptr %3, i64 48
  %88 = load ptr, ptr %87, align 8
  %89 = load i32, ptr %31, align 4
  call void @getALSAVersion(ptr noundef %88, i32 noundef %89) #5
  br label %92

90:                                               ; preds = %4
  %91 = add nsw i32 %6, -1
  store i32 %91, ptr %3, align 8
  br label %92

92:                                               ; preds = %90, %54
  %.0 = phi i32 [ 0, %54 ], [ 1, %90 ]
  ret i32 %.0
}